; Function Attrs: mustprogress nounwind uwtable
define hidden void @_ZN14MacroAssembler12call_VM_leafEPh8Register(ptr noundef nonnull align 8 dereferenceable(40) %0, ptr noundef %1, i32 %2) local_unnamed_addr #0 align 2 {
  %.not5.i = icmp eq i32 %2, 7
  br i1 %.not5.i, label %_ZL9pass_arg0P14MacroAssembler8Register.exit, label %4

4:                                                ; preds = %3
  tail call void @_ZN9Assembler3movE8RegisterS0_(ptr noundef nonnull align 8 dereferenceable(40) %0, i32 7, i32 %2) #18
  br label %_ZL9pass_arg0P14MacroAssembler8Register.exit

_ZL9pass_arg0P14MacroAssembler8Register.exit:     ; preds = %3, %4
  %5 = load ptr, ptr %0, align 8
  %6 = getelementptr inbounds i8, ptr %5, i64 8
  %7 = load ptr, ptr %6, align 8
  tail call void %7(ptr noundef nonnull align 8 dereferenceable(40) %0, ptr noundef %1, i32 noundef 1) #18
  ret void
}